; Function Attrs: mustprogress uwtable
define void @_Z28dtFreeObstacleAvoidanceQueryP24dtObstacleAvoidanceQuery(ptr noundef %0) local_unnamed_addr #0 {
  %.not = icmp eq ptr %0, null
  br i1 %.not, label %3, label %2

2:                                                ; preds = %1
  tail call void @_ZN24dtObstacleAvoidanceQueryD1Ev(ptr noundef nonnull align 8 dereferenceable(76) %0) #13
  tail call void @_Z6dtFreePv(ptr noundef nonnull %0)
  br label %3

3:                                                ; preds = %1, %2
  ret void
}